target datalayout = "e-m:e-p270:32:32-p271:32:32-p272:64:64-i64:64-i128:128-f80:128-n8:16:32:64-S128"
target triple = "x86_64-pc-linux-gnu"

%struct.SDL_HIDAPI_DeviceDriver = type { ptr, i8, ptr, ptr, ptr, ptr, ptr, ptr, ptr, ptr, ptr, ptr, ptr, ptr, ptr, ptr, ptr, ptr, ptr }
%struct.SDL_AtomicInt = type { i32 }
%struct.SDL_HIDAPI_Device = type { ptr, ptr, ptr, ptr, i16, i16, i16, ptr, %struct.SDL_GUID, i32, i32, i32, i32, i16, i16, i8, i32, i32, i32, ptr, ptr, ptr, ptr, %struct.SDL_AtomicInt, i32, ptr, i8, i8, i8, ptr, i32, ptr, ptr }
%struct.SDL_GUID = type { [16 x i8] }
%struct.SDL_Joystick = type { i32, ptr, ptr, ptr, %struct.SDL_GUID, i16, i64, i8, i8, i32, ptr, i32, ptr, i32, ptr, i32, ptr, i32, ptr, i32, i32, ptr, i16, i16, i64, i64, i16, i16, i64, i64, i8, i8, i8, i64, i8, i32, i32, i32, i8, i32, ptr, i32, ptr, [3 x [3 x float]], i64, ptr, ptr, i32, i32, ptr }
%struct.joystick_hwdata = type { ptr }

@.str.34 = private unnamed_addr constant [39 x i8] c"SendEffect failed, device disconnected\00", align 1

; Function Attrs: nounwind uwtable
define internal zeroext i1 @HIDAPI_GetJoystickDevice(ptr noundef %0, ptr noundef %1) #0 {
  %3 = alloca i1, align 1
  %4 = alloca ptr, align 8
  %5 = alloca ptr, align 8
  store ptr %0, ptr %4, align 8
  store ptr %1, ptr %5, align 8
  call void @SDL_AssertJoysticksLocked()
  %6 = load ptr, ptr %4, align 8
  %7 = icmp ne ptr %6, null
  br i1 %7, label %8, label %31

8:                                                ; preds = %2
  %9 = load ptr, ptr %4, align 8
  %10 = getelementptr inbounds nuw %struct.SDL_Joystick, ptr %9, i32 0, i32 46
  %11 = load ptr, ptr %10, align 8
  %12 = icmp ne ptr %11, null
  br i1 %12, label %13, label %31

13:                                               ; preds = %8
  %14 = load ptr, ptr %4, align 8
  %15 = getelementptr inbounds nuw %struct.SDL_Joystick, ptr %14, i32 0, i32 46
  %16 = load ptr, ptr %15, align 8
  %17 = getelementptr inbounds nuw %struct.joystick_hwdata, ptr %16, i32 0, i32 0
  %18 = load ptr, ptr %17, align 8
  %19 = load ptr, ptr %5, align 8
  store ptr %18, ptr %19, align 8
  %20 = load ptr, ptr %5, align 8
  %21 = load ptr, ptr %20, align 8
  %22 = call zeroext i1 @SDL_ObjectValid(ptr noundef %21, i32 noundef 9)
  br i1 %22, label %23, label %30

23:                                               ; preds = %13
  %24 = load ptr, ptr %5, align 8
  %25 = load ptr, ptr %24, align 8
  %26 = getelementptr inbounds nuw %struct.SDL_HIDAPI_Device, ptr %25, i32 0, i32 19
  %27 = load ptr, ptr %26, align 8
  %28 = icmp ne ptr %27, null
  br i1 %28, label %29, label %30

29:                                               ; preds = %23
  store i1 true, ptr %3, align 1
  br label %32

30:                                               ; preds = %23, %13
  br label %31

31:                                               ; preds = %30, %8, %2
  store i1 false, ptr %3, align 1
  br label %32

32:                                               ; preds = %31, %29
  %33 = load i1, ptr %3, align 1
  ret i1 %33
}

; Function Attrs: nounwind uwtable
define internal zeroext i1 @HIDAPI_JoystickSendEffect(ptr noundef %0, ptr noundef %1, i32 noundef %2) #0 {
  %4 = alloca ptr, align 8
  %5 = alloca ptr, align 8
  %6 = alloca i32, align 4
  %7 = alloca i8, align 1
  %8 = alloca ptr, align 8
  store ptr %0, ptr %4, align 8
  store ptr %1, ptr %5, align 8
  store i32 %2, ptr %6, align 4
  call void @llvm.lifetime.start.p0(i64 1, ptr %7) #7
  call void @llvm.lifetime.start.p0(i64 8, ptr %8) #7
  store ptr null, ptr %8, align 8
  %9 = load ptr, ptr %4, align 8
  %10 = call zeroext i1 @HIDAPI_GetJoystickDevice(ptr noundef %9, ptr noundef %8)
  br i1 %10, label %11, label %23

11:                                               ; preds = %3
  %12 = load ptr, ptr %8, align 8
  %13 = getelementptr inbounds nuw %struct.SDL_HIDAPI_Device, ptr %12, i32 0, i32 19
  %14 = load ptr, ptr %13, align 8
  %15 = getelementptr inbounds nuw %struct.SDL_HIDAPI_DeviceDriver, ptr %14, i32 0, i32 15
  %16 = load ptr, ptr %15, align 8
  %17 = load ptr, ptr %8, align 8
  %18 = load ptr, ptr %4, align 8
  %19 = load ptr, ptr %5, align 8
  %20 = load i32, ptr %6, align 4
  %21 = call zeroext i1 %16(ptr noundef %17, ptr noundef %18, ptr noundef %19, i32 noundef %20)
  %22 = zext i1 %21 to i8
  store i8 %22, ptr %7, align 1
  br label %26

23:                                               ; preds = %3
  %24 = call zeroext i1 (ptr, ...) @SDL_SetError_REAL(ptr noundef @.str.34)
  %25 = zext i1 %24 to i8
  store i8 %25, ptr %7, align 1
  br label %26

26:                                               ; preds = %23, %11
  %27 = load i8, ptr %7, align 1, !range !6, !noundef !7
  %28 = trunc i8 %27 to i1
  call void @llvm.lifetime.end.p0(i64 8, ptr %8) #7
  call void @llvm.lifetime.end.p0(i64 1, ptr %7) #7
  ret i1 %28
}